(dp0
Vloss
p1
(lp2
F2.345249891281128
aF1.779694676399231
aF1.6704556941986084
aF1.571843147277832
aF1.49776291847229
aF1.436468243598938
aF1.3919788599014282
aF1.3468958139419556
aF1.312833309173584
aF1.3034061193466187
aF1.2702559232711792
aF1.2453618049621582
aF1.2364732027053833
aF1.215696930885315
aF1.1968238353729248
aF1.1855906248092651
aF1.1673437356948853
aF1.1570969820022583
aF1.1488760709762573
aF1.1303948163986206
aF1.1230710744857788
aF1.1113542318344116
aF1.1008365154266357
aF1.0910112857818604
aF1.0769972801208496
aF1.0700807571411133
aF1.0644943714141846
aF1.0513596534729004
aF1.0501021146774292
aF1.0386896133422852
aF1.0209524631500244
aF1.0209053754806519
aF1.0059852600097656
aF1.0073717832565308
aF0.9933359622955322
aF0.9808161854743958
aF0.9803338646888733
aF0.976640522480011
aF0.968277633190155
aF0.9675061106681824
asVaccuracy
p3
(lp4
F0.22308212518692017
aF0.2966044247150421
aF0.3528747856616974
aF0.3988907039165497
aF0.42955726385116577
aF0.45441940426826477
aF0.4734126627445221
aF0.4929218590259552
aF0.5086259841918945
aF0.5091741681098938
aF0.5222662687301636
aF0.5325852036476135
aF0.5392602682113647
aF0.5492567420005798
aF0.5514494776725769
aF0.5567379593849182
aF0.5642514228820801
aF0.5673470497131348
aF0.5719906091690063
aF0.5760214328765869
aF0.581213116645813
aF0.5855341553688049
aF0.5889523029327393
aF0.591467559337616
aF0.5976588726043701
aF0.6009480357170105
aF0.6048821210861206
aF0.608106791973114
aF0.6080745458602905
aF0.6155557632446289
aF0.6203927397727966
aF0.6214569211006165
aF0.6252942681312561
aF0.6239721179008484
aF0.6317113041877747
aF0.636999785900116
aF0.6396117210388184
aF0.6395794749259949
aF0.6431910991668701
aF0.6426429152488708
asVval_loss
p5
(lp6
F1.8744163513183594
aF1.7415696382522583
aF1.5475246906280518
aF1.573833703994751
aF1.412271499633789
aF1.4041974544525146
aF1.3584421873092651
aF1.3692857027053833
aF1.2333996295928955
aF1.2571430206298828
aF1.2353808879852295
aF1.1977466344833374
aF1.1933650970458984
aF1.2482482194900513
aF1.3616266250610352
aF1.1808433532714844
aF1.2441253662109375
aF1.1578115224838257
aF1.2134884595870972
aF1.2048797607421875
aF1.231644868850708
aF1.1118243932724
aF1.109976053237915
aF1.1229932308197021
aF1.2388687133789062
aF1.1586897373199463
aF1.0888475179672241
aF1.156103491783142
aF1.1188231706619263
aF1.1110605001449585
aF1.0626217126846313
aF1.0753556489944458
aF1.0628758668899536
aF1.0793390274047852
aF1.0895096063613892
aF1.0925943851470947
aF1.1089403629302979
aF1.0732457637786865
aF1.1488443613052368
aF1.0805556774139404
asVval_accuracy
p7
(lp8
F0.25
aF0.3060825765132904
aF0.42578125
aF0.3881138265132904
aF0.4642857015132904
aF0.462890625
aF0.5080915093421936
aF0.4896763265132904
aF0.5270647406578064
aF0.5206473469734192
aF0.5334821343421936
aF0.5546875
aF0.5552455186843872
aF0.5209263563156128
aF0.4866071343421936
aF0.5516182780265808
aF0.5460379719734192
aF0.5588727593421936
aF0.5418526530265808
aF0.5574776530265808
aF0.5362723469734192
aF0.5856584906578064
aF0.5870535969734192
aF0.5786830186843872
aF0.5309709906578064
aF0.560546875
aF0.5862165093421936
aF0.5599888563156128
aF0.5853794813156128
aF0.5864955186843872
aF0.5934709906578064
aF0.5993303656578064
aF0.6032366156578064
aF0.5904017686843872
aF0.5968192219734192
aF0.59765625
aF0.5887276530265808
aF0.59765625
aF0.5750557780265808
aF0.5979352593421936
as.