(dp0
Vloss
p1
(lp2
F2.051661491394043
aF1.8597897291183472
aF1.7459222078323364
aF1.628849983215332
aF1.5565307140350342
aF1.4988759756088257
aF1.4488568305969238
aF1.4084967374801636
aF1.3722344636917114
aF1.3381519317626953
aF1.307420015335083
aF1.2746526002883911
aF1.2448934316635132
aF1.2226166725158691
aF1.192609190940857
aF1.1724797487258911
aF1.1427879333496094
aF1.1205958127975464
aF1.0915886163711548
aF1.0708521604537964
aF1.046147346496582
aF1.032660722732544
aF1.0033185482025146
aF0.9835196733474731
aF0.9577235579490662
aF0.9380668997764587
aF0.9231904745101929
aF0.8965321183204651
aF0.8773393034934998
aF0.867202639579773
aF0.8331495523452759
aF0.811122715473175
aF0.8017424941062927
aF0.7786566615104675
aF0.7549790740013123
aF0.7385889291763306
aF0.7124983072280884
aF0.6927782297134399
aF0.6798067688941956
aF0.654065728187561
asVaccuracy
p3
(lp4
F0.2085711508989334
aF0.2537164092063904
aF0.31808069348335266
aF0.37061041593551636
aF0.402308851480484
aF0.42962175607681274
aF0.4446486830711365
aF0.462287575006485
aF0.47960400581359863
aF0.4898906946182251
aF0.5053690671920776
aF0.5169456005096436
aF0.5274902582168579
aF0.5355841517448425
aF0.5490632653236389
aF0.557189404964447
aF0.5693786144256592
aF0.5783431529998779
aF0.5864048004150391
aF0.5963045358657837
aF0.6043661832809448
aF0.6103963255882263
aF0.6203604936599731
aF0.6301957368850708
aF0.6401599645614624
aF0.6495437026023865
aF0.653574526309967
aF0.6666989326477051
aF0.6735674142837524
aF0.6770500540733337
aF0.6890458464622498
aF0.698107123374939
aF0.7004933953285217
aF0.7091032266616821
aF0.7190674543380737
aF0.7229692935943604
aF0.7343523502349854
aF0.7452194094657898
aF0.7497984766960144
aF0.7597626447677612
asVval_loss
p5
(lp6
F1.842641830444336
aF1.725677490234375
aF1.6703071594238281
aF1.5667680501937866
aF1.9083622694015503
aF2.5399038791656494
aF1.401383399963379
aF2.050865411758423
aF1.3811486959457397
aF1.379578948020935
aF1.472896695137024
aF1.2961580753326416
aF1.340824842453003
aF1.236526370048523
aF1.2358615398406982
aF1.4455875158309937
aF1.2042440176010132
aF1.250327229499817
aF1.2034002542495728
aF1.2266415357589722
aF1.2286509275436401
aF1.437247633934021
aF1.2023669481277466
aF1.3661738634109497
aF1.1280335187911987
aF1.1872966289520264
aF1.1406877040863037
aF1.177290916442871
aF1.1092503070831299
aF1.1036335229873657
aF1.131794810295105
aF1.1536922454833984
aF1.1082909107208252
aF1.115000605583191
aF1.189215898513794
aF1.1088225841522217
aF1.1201554536819458
aF1.1520392894744873
aF1.2452342510223389
aF1.2111817598342896
asVval_accuracy
p7
(lp8
F0.2957589328289032
aF0.3445870578289032
aF0.3429129421710968
aF0.380859375
aF0.3080357015132904
aF0.2218191921710968
aF0.4564732015132904
aF0.3244977593421936
aF0.4670758843421936
aF0.4773995578289032
aF0.4375
aF0.5075334906578064
aF0.4854910671710968
aF0.5279017686843872
aF0.5298548936843872
aF0.470703125
aF0.5362723469734192
aF0.5228794813156128
aF0.546875
aF0.5304129719734192
aF0.5432477593421936
aF0.505859375
aF0.5491071343421936
aF0.5267857313156128
aF0.5747767686843872
aF0.5678013563156128
aF0.5789620280265808
aF0.5731026530265808
aF0.5859375
aF0.6001673936843872
aF0.5915178656578064
aF0.5789620280265808
aF0.5915178656578064
aF0.5987723469734192
aF0.5959821343421936
aF0.607421875
aF0.6057477593421936
aF0.6040736436843872
aF0.5998883843421936
aF0.5998883843421936
as.